target datalayout = "e-m:e-p270:32:32-p271:32:32-p272:64:64-i64:64-i128:128-f80:128-n8:16:32:64-S128"
target triple = "x86_64-pc-linux-gnu"

%struct.UBiDi = type { ptr, ptr, i32, i32, i32, i32, i32, i32, i32, i32, i32, ptr, ptr, ptr, ptr, ptr, ptr, i8, i8, ptr, ptr, i8, i32, i32, i8, i8, i8, ptr, i32, ptr, i32, ptr, i32, i32, i32, i32, i32, ptr, [10 x %struct.Para], i32, ptr, [1 x %struct.Run], i32, ptr, [5 x %struct.Isolate], %struct.InsertPoints, i32, ptr, ptr }
%struct.Para = type { i32, i32 }
%struct.Run = type { i32, i32, i32 }
%struct.Isolate = type { i32, i32, i32, i16 }
%struct.InsertPoints = type { i32, i32, i32, i32, ptr }

; Function Attrs: mustprogress uwtable
define void @ubidi_close_77(ptr noundef %0) #0 {
  %2 = alloca ptr, align 8
  store ptr %0, ptr %2, align 8, !tbaa !11
  %3 = load ptr, ptr %2, align 8, !tbaa !11
  %4 = icmp ne ptr %3, null
  br i1 %4, label %5, label %74

5:                                                ; preds = %1
  %6 = load ptr, ptr %2, align 8, !tbaa !11
  %7 = getelementptr inbounds nuw %struct.UBiDi, ptr %6, i32 0, i32 0
  store ptr null, ptr %7, align 8, !tbaa !33
  %8 = load ptr, ptr %2, align 8, !tbaa !11
  %9 = getelementptr inbounds nuw %struct.UBiDi, ptr %8, i32 0, i32 11
  %10 = load ptr, ptr %9, align 8, !tbaa !34
  %11 = icmp ne ptr %10, null
  br i1 %11, label %12, label %16

12:                                               ; preds = %5
  %13 = load ptr, ptr %2, align 8, !tbaa !11
  %14 = getelementptr inbounds nuw %struct.UBiDi, ptr %13, i32 0, i32 11
  %15 = load ptr, ptr %14, align 8, !tbaa !34
  call void @uprv_free_77(ptr noundef %15)
  br label %16

16:                                               ; preds = %12, %5
  %17 = load ptr, ptr %2, align 8, !tbaa !11
  %18 = getelementptr inbounds nuw %struct.UBiDi, ptr %17, i32 0, i32 12
  %19 = load ptr, ptr %18, align 8, !tbaa !35
  %20 = icmp ne ptr %19, null
  br i1 %20, label %21, label %25

21:                                               ; preds = %16
  %22 = load ptr, ptr %2, align 8, !tbaa !11
  %23 = getelementptr inbounds nuw %struct.UBiDi, ptr %22, i32 0, i32 12
  %24 = load ptr, ptr %23, align 8, !tbaa !35
  call void @uprv_free_77(ptr noundef %24)
  br label %25

25:                                               ; preds = %21, %16
  %26 = load ptr, ptr %2, align 8, !tbaa !11
  %27 = getelementptr inbounds nuw %struct.UBiDi, ptr %26, i32 0, i32 13
  %28 = load ptr, ptr %27, align 8, !tbaa !36
  %29 = icmp ne ptr %28, null
  br i1 %29, label %30, label %34

30:                                               ; preds = %25
  %31 = load ptr, ptr %2, align 8, !tbaa !11
  %32 = getelementptr inbounds nuw %struct.UBiDi, ptr %31, i32 0, i32 13
  %33 = load ptr, ptr %32, align 8, !tbaa !36
  call void @uprv_free_77(ptr noundef %33)
  br label %34

34:                                               ; preds = %30, %25
  %35 = load ptr, ptr %2, align 8, !tbaa !11
  %36 = getelementptr inbounds nuw %struct.UBiDi, ptr %35, i32 0, i32 14
  %37 = load ptr, ptr %36, align 8, !tbaa !37
  %38 = icmp ne ptr %37, null
  br i1 %38, label %39, label %43

39:                                               ; preds = %34
  %40 = load ptr, ptr %2, align 8, !tbaa !11
  %41 = getelementptr inbounds nuw %struct.UBiDi, ptr %40, i32 0, i32 14
  %42 = load ptr, ptr %41, align 8, !tbaa !37
  call void @uprv_free_77(ptr noundef %42)
  br label %43

43:                                               ; preds = %39, %34
  %44 = load ptr, ptr %2, align 8, !tbaa !11
  %45 = getelementptr inbounds nuw %struct.UBiDi, ptr %44, i32 0, i32 15
  %46 = load ptr, ptr %45, align 8, !tbaa !38
  %47 = icmp ne ptr %46, null
  br i1 %47, label %48, label %52

48:                                               ; preds = %43
  %49 = load ptr, ptr %2, align 8, !tbaa !11
  %50 = getelementptr inbounds nuw %struct.UBiDi, ptr %49, i32 0, i32 15
  %51 = load ptr, ptr %50, align 8, !tbaa !38
  call void @uprv_free_77(ptr noundef %51)
  br label %52

52:                                               ; preds = %48, %43
  %53 = load ptr, ptr %2, align 8, !tbaa !11
  %54 = getelementptr inbounds nuw %struct.UBiDi, ptr %53, i32 0, i32 16
  %55 = load ptr, ptr %54, align 8, !tbaa !39
  %56 = icmp ne ptr %55, null
  br i1 %56, label %57, label %61

57:                                               ; preds = %52
  %58 = load ptr, ptr %2, align 8, !tbaa !11
  %59 = getelementptr inbounds nuw %struct.UBiDi, ptr %58, i32 0, i32 16
  %60 = load ptr, ptr %59, align 8, !tbaa !39
  call void @uprv_free_77(ptr noundef %60)
  br label %61

61:                                               ; preds = %57, %52
  %62 = load ptr, ptr %2, align 8, !tbaa !11
  %63 = getelementptr inbounds nuw %struct.UBiDi, ptr %62, i32 0, i32 45
  %64 = getelementptr inbounds nuw %struct.InsertPoints, ptr %63, i32 0, i32 4
  %65 = load ptr, ptr %64, align 8, !tbaa !40
  %66 = icmp ne ptr %65, null
  br i1 %66, label %67, label %72

67:                                               ; preds = %61
  %68 = load ptr, ptr %2, align 8, !tbaa !11
  %69 = getelementptr inbounds nuw %struct.UBiDi, ptr %68, i32 0, i32 45
  %70 = getelementptr inbounds nuw %struct.InsertPoints, ptr %69, i32 0, i32 4
  %71 = load ptr, ptr %70, align 8, !tbaa !40
  call void @uprv_free_77(ptr noundef %71)
  br label %72

72:                                               ; preds = %67, %61
  %73 = load ptr, ptr %2, align 8, !tbaa !11
  call void @uprv_free_77(ptr noundef %73)
  br label %74

74:                                               ; preds = %72, %1
  ret void
}

; Function Attrs: inlinehint mustprogress nounwind uwtable
define internal noundef signext i8 @_ZL9U_SUCCESS10UErrorCode(i32 noundef %0) #2 {
  %2 = alloca i32, align 4
  store i32 %0, ptr %2, align 4, !tbaa !3
  %3 = load i32, ptr %2, align 4, !tbaa !3
  %4 = icmp sle i32 %3, 0
  %5 = zext i1 %4 to i8
  ret i8 %5
}

; Function Attrs: mustprogress uwtable
define signext i8 @ubidi_getMemory_77(ptr noundef %0, ptr noundef %1, i8 noundef signext %2, i32 noundef %3) #0 {
  %5 = alloca i8, align 1
  %6 = alloca ptr, align 8
  %7 = alloca ptr, align 8
  %8 = alloca i8, align 1
  %9 = alloca i32, align 4
  %10 = alloca ptr, align 8
  %11 = alloca i32, align 4
  %12 = alloca ptr, align 8
  store ptr %0, ptr %6, align 8, !tbaa !9
  store ptr %1, ptr %7, align 8, !tbaa !28
  store i8 %2, ptr %8, align 1, !tbaa !30
  store i32 %3, ptr %9, align 4, !tbaa !7
  call void @llvm.lifetime.start.p0(i64 8, ptr %10) #10
  %13 = load ptr, ptr %6, align 8, !tbaa !9
  store ptr %13, ptr %10, align 8, !tbaa !31
  %14 = load ptr, ptr %10, align 8, !tbaa !31
  %15 = load ptr, ptr %14, align 8, !tbaa !9
  %16 = icmp eq ptr %15, null
  br i1 %16, label %17, label %30

17:                                               ; preds = %4
  %18 = load i8, ptr %8, align 1, !tbaa !30
  %19 = icmp ne i8 %18, 0
  br i1 %19, label %20, label %29

20:                                               ; preds = %17
  %21 = load i32, ptr %9, align 4, !tbaa !7
  %22 = sext i32 %21 to i64
  %23 = call noalias ptr @uprv_malloc_77(i64 noundef %22) #11
  %24 = load ptr, ptr %10, align 8, !tbaa !31
  store ptr %23, ptr %24, align 8, !tbaa !9
  %25 = icmp ne ptr %23, null
  br i1 %25, label %26, label %29

26:                                               ; preds = %20
  %27 = load i32, ptr %9, align 4, !tbaa !7
  %28 = load ptr, ptr %7, align 8, !tbaa !28
  store i32 %27, ptr %28, align 4, !tbaa !7
  store i8 1, ptr %5, align 1
  store i32 1, ptr %11, align 4
  br label %54

29:                                               ; preds = %20, %17
  store i8 0, ptr %5, align 1
  store i32 1, ptr %11, align 4
  br label %54

30:                                               ; preds = %4
  %31 = load i32, ptr %9, align 4, !tbaa !7
  %32 = load ptr, ptr %7, align 8, !tbaa !28
  %33 = load i32, ptr %32, align 4, !tbaa !7
  %34 = icmp sle i32 %31, %33
  br i1 %34, label %35, label %36

35:                                               ; preds = %30
  store i8 1, ptr %5, align 1
  store i32 1, ptr %11, align 4
  br label %54

36:                                               ; preds = %30
  %37 = load i8, ptr %8, align 1, !tbaa !30
  %38 = icmp ne i8 %37, 0
  br i1 %38, label %40, label %39

39:                                               ; preds = %36
  store i8 0, ptr %5, align 1
  store i32 1, ptr %11, align 4
  br label %54

40:                                               ; preds = %36
  call void @llvm.lifetime.start.p0(i64 8, ptr %12) #10
  %41 = load ptr, ptr %10, align 8, !tbaa !31
  %42 = load ptr, ptr %41, align 8, !tbaa !9
  %43 = load i32, ptr %9, align 4, !tbaa !7
  %44 = sext i32 %43 to i64
  %45 = call ptr @uprv_realloc_77(ptr noundef %42, i64 noundef %44) #12
  store ptr %45, ptr %12, align 8, !tbaa !9
  %46 = icmp ne ptr %45, null
  br i1 %46, label %47, label %52

47:                                               ; preds = %40
  %48 = load ptr, ptr %12, align 8, !tbaa !9
  %49 = load ptr, ptr %10, align 8, !tbaa !31
  store ptr %48, ptr %49, align 8, !tbaa !9
  %50 = load i32, ptr %9, align 4, !tbaa !7
  %51 = load ptr, ptr %7, align 8, !tbaa !28
  store i32 %50, ptr %51, align 4, !tbaa !7
  store i8 1, ptr %5, align 1
  store i32 1, ptr %11, align 4
  br label %53

52:                                               ; preds = %40
  store i8 0, ptr %5, align 1
  store i32 1, ptr %11, align 4
  br label %53

53:                                               ; preds = %52, %47
  call void @llvm.lifetime.end.p0(i64 8, ptr %12) #10
  br label %54

54:                                               ; preds = %53, %39, %35, %29, %26
  call void @llvm.lifetime.end.p0(i64 8, ptr %10) #10
  %55 = load i8, ptr %5, align 1
  ret i8 %55
}

; Function Attrs: inlinehint mustprogress nounwind uwtable
define internal noundef signext i8 @_ZL9U_FAILURE10UErrorCode(i32 noundef %0) #2 {
  %2 = alloca i32, align 4
  store i32 %0, ptr %2, align 4, !tbaa !3
  %3 = load i32, ptr %2, align 4, !tbaa !3
  %4 = icmp sgt i32 %3, 0
  %5 = zext i1 %4 to i8
  ret i8 %5
}

; Function Attrs: mustprogress uwtable
define ptr @ubidi_openSized_77(i32 noundef %0, i32 noundef %1, ptr noundef %2) #0 {
  %4 = alloca ptr, align 8
  %5 = alloca i32, align 4
  %6 = alloca i32, align 4
  %7 = alloca ptr, align 8
  %8 = alloca ptr, align 8
  %9 = alloca i32, align 4
  store i32 %0, ptr %5, align 4, !tbaa !7
  store i32 %1, ptr %6, align 4, !tbaa !7
  store ptr %2, ptr %7, align 8, !tbaa !9
  call void @llvm.lifetime.start.p0(i64 8, ptr %8) #10
  %10 = load ptr, ptr %7, align 8, !tbaa !9
  %11 = icmp eq ptr %10, null
  br i1 %11, label %17, label %12

12:                                               ; preds = %3
  %13 = load ptr, ptr %7, align 8, !tbaa !9
  %14 = load i32, ptr %13, align 4, !tbaa !3
  %15 = call noundef signext i8 @_ZL9U_FAILURE10UErrorCode(i32 noundef %14)
  %16 = icmp ne i8 %15, 0
  br i1 %16, label %17, label %18

17:                                               ; preds = %12, %3
  store ptr null, ptr %4, align 8
  store i32 1, ptr %9, align 4
  br label %95

18:                                               ; preds = %12
  %19 = load i32, ptr %5, align 4, !tbaa !7
  %20 = icmp slt i32 %19, 0
  br i1 %20, label %24, label %21

21:                                               ; preds = %18
  %22 = load i32, ptr %6, align 4, !tbaa !7
  %23 = icmp slt i32 %22, 0
  br i1 %23, label %24, label %26

24:                                               ; preds = %21, %18
  %25 = load ptr, ptr %7, align 8, !tbaa !9
  store i32 1, ptr %25, align 4, !tbaa !3
  store ptr null, ptr %4, align 8
  store i32 1, ptr %9, align 4
  br label %95

26:                                               ; preds = %21
  br label %27

27:                                               ; preds = %26
  %28 = call noalias ptr @uprv_malloc_77(i64 noundef 464) #11
  store ptr %28, ptr %8, align 8, !tbaa !11
  %29 = load ptr, ptr %8, align 8, !tbaa !11
  %30 = icmp eq ptr %29, null
  br i1 %30, label %31, label %33

31:                                               ; preds = %27
  %32 = load ptr, ptr %7, align 8, !tbaa !9
  store i32 7, ptr %32, align 4, !tbaa !3
  store ptr null, ptr %4, align 8
  store i32 1, ptr %9, align 4
  br label %95

33:                                               ; preds = %27
  %34 = load ptr, ptr %8, align 8, !tbaa !11
  call void @llvm.memset.p0.i64(ptr align 8 %34, i8 0, i64 464, i1 false)
  %35 = load i32, ptr %5, align 4, !tbaa !7
  %36 = icmp sgt i32 %35, 0
  br i1 %36, label %37, label %56

37:                                               ; preds = %33
  %38 = load ptr, ptr %8, align 8, !tbaa !11
  %39 = getelementptr inbounds nuw %struct.UBiDi, ptr %38, i32 0, i32 11
  %40 = load ptr, ptr %8, align 8, !tbaa !11
  %41 = getelementptr inbounds nuw %struct.UBiDi, ptr %40, i32 0, i32 5
  %42 = load i32, ptr %5, align 4, !tbaa !7
  %43 = call signext i8 @ubidi_getMemory_77(ptr noundef %39, ptr noundef %41, i8 noundef signext 1, i32 noundef %42)
  %44 = icmp ne i8 %43, 0
  br i1 %44, label %45, label %53

45:                                               ; preds = %37
  %46 = load ptr, ptr %8, align 8, !tbaa !11
  %47 = getelementptr inbounds nuw %struct.UBiDi, ptr %46, i32 0, i32 12
  %48 = load ptr, ptr %8, align 8, !tbaa !11
  %49 = getelementptr inbounds nuw %struct.UBiDi, ptr %48, i32 0, i32 6
  %50 = load i32, ptr %5, align 4, !tbaa !7
  %51 = call signext i8 @ubidi_getMemory_77(ptr noundef %47, ptr noundef %49, i8 noundef signext 1, i32 noundef %50)
  %52 = icmp ne i8 %51, 0
  br i1 %52, label %55, label %53

53:                                               ; preds = %45, %37
  %54 = load ptr, ptr %7, align 8, !tbaa !9
  store i32 7, ptr %54, align 4, !tbaa !3
  br label %55

55:                                               ; preds = %53, %45
  br label %59

56:                                               ; preds = %33
  %57 = load ptr, ptr %8, align 8, !tbaa !11
  %58 = getelementptr inbounds nuw %struct.UBiDi, ptr %57, i32 0, i32 17
  store i8 1, ptr %58, align 8, !tbaa !13
  br label %59

59:                                               ; preds = %56, %55
  %60 = load i32, ptr %6, align 4, !tbaa !7
  %61 = icmp sgt i32 %60, 0
  br i1 %61, label %62, label %83

62:                                               ; preds = %59
  %63 = load i32, ptr %6, align 4, !tbaa !7
  %64 = icmp eq i32 %63, 1
  br i1 %64, label %65, label %68

65:                                               ; preds = %62
  %66 = load ptr, ptr %8, align 8, !tbaa !11
  %67 = getelementptr inbounds nuw %struct.UBiDi, ptr %66, i32 0, i32 9
  store i32 12, ptr %67, align 4, !tbaa !26
  br label %82

68:                                               ; preds = %62
  %69 = load ptr, ptr %8, align 8, !tbaa !11
  %70 = getelementptr inbounds nuw %struct.UBiDi, ptr %69, i32 0, i32 15
  %71 = load ptr, ptr %8, align 8, !tbaa !11
  %72 = getelementptr inbounds nuw %struct.UBiDi, ptr %71, i32 0, i32 9
  %73 = load i32, ptr %6, align 4, !tbaa !7
  %74 = sext i32 %73 to i64
  %75 = mul i64 %74, 12
  %76 = trunc i64 %75 to i32
  %77 = call signext i8 @ubidi_getMemory_77(ptr noundef %70, ptr noundef %72, i8 noundef signext 1, i32 noundef %76)
  %78 = icmp ne i8 %77, 0
  br i1 %78, label %81, label %79

79:                                               ; preds = %68
  %80 = load ptr, ptr %7, align 8, !tbaa !9
  store i32 7, ptr %80, align 4, !tbaa !3
  br label %81

81:                                               ; preds = %79, %68
  br label %82

82:                                               ; preds = %81, %65
  br label %86

83:                                               ; preds = %59
  %84 = load ptr, ptr %8, align 8, !tbaa !11
  %85 = getelementptr inbounds nuw %struct.UBiDi, ptr %84, i32 0, i32 18
  store i8 1, ptr %85, align 1, !tbaa !27
  br label %86

86:                                               ; preds = %83, %82
  %87 = load ptr, ptr %7, align 8, !tbaa !9
  %88 = load i32, ptr %87, align 4, !tbaa !3
  %89 = call noundef signext i8 @_ZL9U_SUCCESS10UErrorCode(i32 noundef %88)
  %90 = icmp ne i8 %89, 0
  br i1 %90, label %91, label %93

91:                                               ; preds = %86
  %92 = load ptr, ptr %8, align 8, !tbaa !11
  store ptr %92, ptr %4, align 8
  store i32 1, ptr %9, align 4
  br label %95

93:                                               ; preds = %86
  %94 = load ptr, ptr %8, align 8, !tbaa !11
  call void @ubidi_close_77(ptr noundef %94)
  store ptr null, ptr %4, align 8
  store i32 1, ptr %9, align 4
  br label %95

95:                                               ; preds = %93, %91, %31, %24, %17
  call void @llvm.lifetime.end.p0(i64 8, ptr %8) #10
  %96 = load ptr, ptr %4, align 8
  ret ptr %96
}

; Function Attrs: mustprogress uwtable
define ptr @ubidi_open_77() #0 {
  %1 = alloca i32, align 4
  call void @llvm.lifetime.start.p0(i64 4, ptr %1) #10
  store i32 0, ptr %1, align 4, !tbaa !3
  %2 = call ptr @ubidi_openSized_77(i32 noundef 0, i32 noundef 0, ptr noundef %1)
  call void @llvm.lifetime.end.p0(i64 4, ptr %1) #10
  ret ptr %2
}