; Function Attrs: mustprogress uwtable
define noalias noundef ptr @ubidi_open_77() local_unnamed_addr #0 {
  %1 = tail call noalias dereferenceable_or_null(464) ptr @uprv_malloc_77(i64 noundef 464) #16
  %2 = icmp eq ptr %1, null
  br i1 %2, label %ubidi_openSized_77.exit, label %3

3:                                                ; preds = %0
  tail call void @llvm.memset.p0.i64(ptr noundef nonnull align 8 dereferenceable(464) %1, i8 0, i64 464, i1 false)
  %4 = getelementptr inbounds nuw i8, ptr %1, i64 104
  store i8 1, ptr %4, align 8, !tbaa !3
  %5 = getelementptr inbounds nuw i8, ptr %1, i64 105
  store i8 1, ptr %5, align 1, !tbaa !22
  br label %ubidi_openSized_77.exit

ubidi_openSized_77.exit:                          ; preds = %3, %0
  ret ptr %1
}